target datalayout = "e-m:e-p270:32:32-p271:32:32-p272:64:64-i64:64-i128:128-f80:128-n8:16:32:64-S128"
target triple = "x86_64-pc-linux-gnu"

%"struct.url::Component" = type { i32, i32 }

; Function Attrs: inlinehint mustprogress nounwind willreturn memory(read) uwtable
define available_externally i32 @atoi(ptr noundef nonnull %0) #8 {
  %2 = alloca ptr, align 8
  store ptr %0, ptr %2, align 8, !tbaa !32
  %3 = load ptr, ptr %2, align 8, !tbaa !32
  %4 = call i64 @strtol(ptr noundef %3, ptr noundef null, i32 noundef 10) #13
  %5 = trunc i64 %4 to i32
  ret i32 %5
}

; Function Attrs: inlinehint mustprogress nounwind uwtable
define internal noundef zeroext i1 @_ZN3url12_GLOBAL__N_111IsPortDigitEt(i16 noundef zeroext %0) #5 {
  %2 = alloca i16, align 2
  store i16 %0, ptr %2, align 2, !tbaa !40
  %3 = load i16, ptr %2, align 2, !tbaa !40
  %4 = zext i16 %3 to i32
  %5 = icmp sge i32 %4, 48
  br i1 %5, label %6, label %10

6:                                                ; preds = %1
  %7 = load i16, ptr %2, align 2, !tbaa !40
  %8 = zext i16 %7 to i32
  %9 = icmp sle i32 %8, 57
  br label %10

10:                                               ; preds = %6, %1
  %11 = phi i1 [ false, %1 ], [ %9, %6 ]
  ret i1 %11
}

; Function Attrs: inlinehint mustprogress uwtable
define linkonce_odr i64 @_ZN3url9MakeRangeEii(i32 noundef %0, i32 noundef %1) #7 comdat {
  %3 = alloca %"struct.url::Component", align 4
  %4 = alloca i32, align 4
  %5 = alloca i32, align 4
  store i32 %0, ptr %4, align 4, !tbaa !17
  store i32 %1, ptr %5, align 4, !tbaa !17
  %6 = load i32, ptr %4, align 4, !tbaa !17
  %7 = load i32, ptr %5, align 4, !tbaa !17
  %8 = load i32, ptr %4, align 4, !tbaa !17
  %9 = sub nsw i32 %7, %8
  call void @_ZN3url9ComponentC2Eii(ptr noundef nonnull align 4 dereferenceable(8) %3, i32 noundef %6, i32 noundef %9)
  %10 = load i64, ptr %3, align 4
  ret i64 %10
}

; Function Attrs: mustprogress nounwind uwtable
define linkonce_odr void @_ZN3url9ComponentC2Eii(ptr noundef nonnull align 4 dereferenceable(8) %0, i32 noundef %1, i32 noundef %2) unnamed_addr #1 comdat align 2 {
  %4 = alloca ptr, align 8
  %5 = alloca i32, align 4
  %6 = alloca i32, align 4
  store ptr %0, ptr %4, align 8, !tbaa !12
  store i32 %1, ptr %5, align 4, !tbaa !17
  store i32 %2, ptr %6, align 4, !tbaa !17
  %7 = load ptr, ptr %4, align 8
  %8 = getelementptr inbounds nuw %"struct.url::Component", ptr %7, i32 0, i32 0
  %9 = load i32, ptr %5, align 4, !tbaa !17
  store i32 %9, ptr %8, align 4, !tbaa !14
  %10 = getelementptr inbounds nuw %"struct.url::Component", ptr %7, i32 0, i32 1
  %11 = load i32, ptr %6, align 4, !tbaa !17
  store i32 %11, ptr %10, align 4, !tbaa !15
  ret void
}

; Function Attrs: mustprogress nounwind uwtable
define linkonce_odr noundef i32 @_ZNK3url9Component3endEv(ptr noundef nonnull align 4 dereferenceable(8) %0) #1 comdat align 2 {
  %2 = alloca ptr, align 8
  store ptr %0, ptr %2, align 8, !tbaa !12
  %3 = load ptr, ptr %2, align 8
  %4 = getelementptr inbounds nuw %"struct.url::Component", ptr %3, i32 0, i32 0
  %5 = load i32, ptr %4, align 4, !tbaa !14
  %6 = getelementptr inbounds nuw %"struct.url::Component", ptr %3, i32 0, i32 1
  %7 = load i32, ptr %6, align 4, !tbaa !15
  %8 = add nsw i32 %5, %7
  ret i32 %8
}

; Function Attrs: mustprogress nounwind uwtable
define linkonce_odr noundef zeroext i1 @_ZNK3url9Component11is_nonemptyEv(ptr noundef nonnull align 4 dereferenceable(8) %0) #1 comdat align 2 {
  %2 = alloca ptr, align 8
  store ptr %0, ptr %2, align 8, !tbaa !12
  %3 = load ptr, ptr %2, align 8
  %4 = getelementptr inbounds nuw %"struct.url::Component", ptr %3, i32 0, i32 1
  %5 = load i32, ptr %4, align 4, !tbaa !15
  %6 = icmp sgt i32 %5, 0
  ret i1 %6
}

; Function Attrs: mustprogress uwtable
define internal noundef i32 @_ZN3url12_GLOBAL__N_111DoParsePortItEEiPKT_RKNS_9ComponentE(ptr noundef %0, ptr noundef nonnull align 4 dereferenceable(8) %1) #0 {
  %3 = alloca i32, align 4
  %4 = alloca ptr, align 8
  %5 = alloca ptr, align 8
  %6 = alloca i32, align 4
  %7 = alloca i32, align 4
  %8 = alloca %"struct.url::Component", align 4
  %9 = alloca i32, align 4
  %10 = alloca %"struct.url::Component", align 4
  %11 = alloca [6 x i8], align 1
  %12 = alloca i32, align 4
  %13 = alloca i16, align 2
  %14 = alloca i32, align 4
  store ptr %0, ptr %4, align 8, !tbaa !38
  store ptr %1, ptr %5, align 8, !tbaa !12
  call void @llvm.lifetime.start.p0(i64 4, ptr %6) #13
  store i32 5, ptr %6, align 4, !tbaa !17
  %15 = load ptr, ptr %5, align 8, !tbaa !12
  %16 = call noundef zeroext i1 @_ZNK3url9Component11is_nonemptyEv(ptr noundef nonnull align 4 dereferenceable(8) %15)
  br i1 %16, label %18, label %17

17:                                               ; preds = %2
  store i32 -1, ptr %3, align 4
  store i32 1, ptr %7, align 4
  br label %112

18:                                               ; preds = %2
  call void @llvm.lifetime.start.p0(i64 8, ptr %8) #13
  %19 = load ptr, ptr %5, align 8, !tbaa !12
  %20 = call noundef i32 @_ZNK3url9Component3endEv(ptr noundef nonnull align 4 dereferenceable(8) %19)
  call void @_ZN3url9ComponentC2Eii(ptr noundef nonnull align 4 dereferenceable(8) %8, i32 noundef %20, i32 noundef 0)
  call void @llvm.lifetime.start.p0(i64 4, ptr %9) #13
  store i32 0, ptr %9, align 4, !tbaa !17
  br label %21

21:                                               ; preds = %50, %18
  %22 = load i32, ptr %9, align 4, !tbaa !17
  %23 = load ptr, ptr %5, align 8, !tbaa !12
  %24 = getelementptr inbounds nuw %"struct.url::Component", ptr %23, i32 0, i32 1
  %25 = load i32, ptr %24, align 4, !tbaa !15
  %26 = icmp slt i32 %22, %25
  br i1 %26, label %28, label %27

27:                                               ; preds = %21
  store i32 2, ptr %7, align 4
  br label %53

28:                                               ; preds = %21
  %29 = load ptr, ptr %4, align 8, !tbaa !38
  %30 = load ptr, ptr %5, align 8, !tbaa !12
  %31 = getelementptr inbounds nuw %"struct.url::Component", ptr %30, i32 0, i32 0
  %32 = load i32, ptr %31, align 4, !tbaa !14
  %33 = load i32, ptr %9, align 4, !tbaa !17
  %34 = add nsw i32 %32, %33
  %35 = sext i32 %34 to i64
  %36 = getelementptr inbounds i16, ptr %29, i64 %35
  %37 = load i16, ptr %36, align 2, !tbaa !40
  %38 = zext i16 %37 to i32
  %39 = icmp ne i32 %38, 48
  br i1 %39, label %40, label %49

40:                                               ; preds = %28
  call void @llvm.lifetime.start.p0(i64 8, ptr %10) #13
  %41 = load ptr, ptr %5, align 8, !tbaa !12
  %42 = getelementptr inbounds nuw %"struct.url::Component", ptr %41, i32 0, i32 0
  %43 = load i32, ptr %42, align 4, !tbaa !14
  %44 = load i32, ptr %9, align 4, !tbaa !17
  %45 = add nsw i32 %43, %44
  %46 = load ptr, ptr %5, align 8, !tbaa !12
  %47 = call noundef i32 @_ZNK3url9Component3endEv(ptr noundef nonnull align 4 dereferenceable(8) %46)
  %48 = call i64 @_ZN3url9MakeRangeEii(i32 noundef %45, i32 noundef %47)
  store i64 %48, ptr %10, align 4
  call void @llvm.memcpy.p0.p0.i64(ptr align 4 %8, ptr align 4 %10, i64 8, i1 false), !tbaa.struct !16
  call void @llvm.lifetime.end.p0(i64 8, ptr %10) #13
  store i32 2, ptr %7, align 4
  br label %53

49:                                               ; preds = %28
  br label %50

50:                                               ; preds = %49
  %51 = load i32, ptr %9, align 4, !tbaa !17
  %52 = add nsw i32 %51, 1
  store i32 %52, ptr %9, align 4, !tbaa !17
  br label %21, !llvm.loop !54

53:                                               ; preds = %40, %27
  call void @llvm.lifetime.end.p0(i64 4, ptr %9) #13
  br label %54

54:                                               ; preds = %53
  %55 = getelementptr inbounds nuw %"struct.url::Component", ptr %8, i32 0, i32 1
  %56 = load i32, ptr %55, align 4, !tbaa !15
  %57 = icmp eq i32 %56, 0
  br i1 %57, label %58, label %59

58:                                               ; preds = %54
  store i32 0, ptr %3, align 4
  store i32 1, ptr %7, align 4
  br label %111

59:                                               ; preds = %54
  %60 = getelementptr inbounds nuw %"struct.url::Component", ptr %8, i32 0, i32 1
  %61 = load i32, ptr %60, align 4, !tbaa !15
  %62 = icmp sgt i32 %61, 5
  br i1 %62, label %63, label %64

63:                                               ; preds = %59
  store i32 -2, ptr %3, align 4
  store i32 1, ptr %7, align 4
  br label %111

64:                                               ; preds = %59
  call void @llvm.lifetime.start.p0(i64 6, ptr %11) #13
  call void @llvm.lifetime.start.p0(i64 4, ptr %12) #13
  store i32 0, ptr %12, align 4, !tbaa !17
  br label %65

65:                                               ; preds = %92, %64
  %66 = load i32, ptr %12, align 4, !tbaa !17
  %67 = getelementptr inbounds nuw %"struct.url::Component", ptr %8, i32 0, i32 1
  %68 = load i32, ptr %67, align 4, !tbaa !15
  %69 = icmp slt i32 %66, %68
  br i1 %69, label %71, label %70

70:                                               ; preds = %65
  store i32 5, ptr %7, align 4
  br label %95

71:                                               ; preds = %65
  call void @llvm.lifetime.start.p0(i64 2, ptr %13) #13
  %72 = load ptr, ptr %4, align 8, !tbaa !38
  %73 = getelementptr inbounds nuw %"struct.url::Component", ptr %8, i32 0, i32 0
  %74 = load i32, ptr %73, align 4, !tbaa !14
  %75 = load i32, ptr %12, align 4, !tbaa !17
  %76 = add nsw i32 %74, %75
  %77 = sext i32 %76 to i64
  %78 = getelementptr inbounds i16, ptr %72, i64 %77
  %79 = load i16, ptr %78, align 2, !tbaa !40
  store i16 %79, ptr %13, align 2, !tbaa !40
  %80 = load i16, ptr %13, align 2, !tbaa !40
  %81 = call noundef zeroext i1 @_ZN3url12_GLOBAL__N_111IsPortDigitEt(i16 noundef zeroext %80)
  br i1 %81, label %83, label %82

82:                                               ; preds = %71
  store i32 -2, ptr %3, align 4
  store i32 1, ptr %7, align 4
  br label %89

83:                                               ; preds = %71
  %84 = load i16, ptr %13, align 2, !tbaa !40
  %85 = trunc i16 %84 to i8
  %86 = load i32, ptr %12, align 4, !tbaa !17
  %87 = sext i32 %86 to i64
  %88 = getelementptr inbounds [6 x i8], ptr %11, i64 0, i64 %87
  store i8 %85, ptr %88, align 1, !tbaa !34
  store i32 0, ptr %7, align 4
  br label %89

89:                                               ; preds = %83, %82
  call void @llvm.lifetime.end.p0(i64 2, ptr %13) #13
  %90 = load i32, ptr %7, align 4
  switch i32 %90, label %95 [
    i32 0, label %91
  ]

91:                                               ; preds = %89
  br label %92

92:                                               ; preds = %91
  %93 = load i32, ptr %12, align 4, !tbaa !17
  %94 = add nsw i32 %93, 1
  store i32 %94, ptr %12, align 4, !tbaa !17
  br label %65, !llvm.loop !55

95:                                               ; preds = %89, %70
  call void @llvm.lifetime.end.p0(i64 4, ptr %12) #13
  %96 = load i32, ptr %7, align 4
  switch i32 %96, label %110 [
    i32 5, label %97
  ]

97:                                               ; preds = %95
  %98 = getelementptr inbounds nuw %"struct.url::Component", ptr %8, i32 0, i32 1
  %99 = load i32, ptr %98, align 4, !tbaa !15
  %100 = sext i32 %99 to i64
  %101 = getelementptr inbounds [6 x i8], ptr %11, i64 0, i64 %100
  store i8 0, ptr %101, align 1, !tbaa !34
  call void @llvm.lifetime.start.p0(i64 4, ptr %14) #13
  %102 = getelementptr inbounds [6 x i8], ptr %11, i64 0, i64 0
  %103 = call i32 @atoi(ptr noundef %102) #14
  store i32 %103, ptr %14, align 4, !tbaa !17
  %104 = load i32, ptr %14, align 4, !tbaa !17
  %105 = icmp sgt i32 %104, 65535
  br i1 %105, label %106, label %107

106:                                              ; preds = %97
  store i32 -2, ptr %3, align 4
  store i32 1, ptr %7, align 4
  br label %109

107:                                              ; preds = %97
  %108 = load i32, ptr %14, align 4, !tbaa !17
  store i32 %108, ptr %3, align 4
  store i32 1, ptr %7, align 4
  br label %109

109:                                              ; preds = %107, %106
  call void @llvm.lifetime.end.p0(i64 4, ptr %14) #13
  br label %110

110:                                              ; preds = %109, %95
  call void @llvm.lifetime.end.p0(i64 6, ptr %11) #13
  br label %111

111:                                              ; preds = %110, %63, %58
  call void @llvm.lifetime.end.p0(i64 8, ptr %8) #13
  br label %112

112:                                              ; preds = %111, %17
  call void @llvm.lifetime.end.p0(i64 4, ptr %6) #13
  %113 = load i32, ptr %3, align 4
  ret i32 %113
}

; Function Attrs: mustprogress uwtable
define noundef i32 @_ZN3url9ParsePortEPKtRKNS_9ComponentE(ptr noundef %0, ptr noundef nonnull align 4 dereferenceable(8) %1) #0 {
  %3 = alloca ptr, align 8
  %4 = alloca ptr, align 8
  store ptr %0, ptr %3, align 8, !tbaa !38
  store ptr %1, ptr %4, align 8, !tbaa !12
  %5 = load ptr, ptr %3, align 8, !tbaa !38
  %6 = load ptr, ptr %4, align 8, !tbaa !12
  %7 = call noundef i32 @_ZN3url12_GLOBAL__N_111DoParsePortItEEiPKT_RKNS_9ComponentE(ptr noundef %5, ptr noundef nonnull align 4 dereferenceable(8) %6)
  ret i32 %7
}